target datalayout = "e-m:e-p270:32:32-p271:32:32-p272:64:64-i64:64-i128:128-f80:128-n8:16:32:64-S128"
target triple = "x86_64-pc-linux-gnu"

; Function Attrs: null_pointer_is_valid sspstrong uwtable
define void @proto_tree_add_bitmask_list_value(ptr noundef %0, ptr noundef %1, i32 noundef %2, i32 noundef %3, ptr noundef %4, i64 noundef %5) #0 {
  %7 = alloca ptr, align 8
  %8 = alloca ptr, align 8
  %9 = alloca i32, align 4
  %10 = alloca i32, align 4
  %11 = alloca ptr, align 8
  %12 = alloca i64, align 8
  store ptr %0, ptr %7, align 8
  store ptr %1, ptr %8, align 8
  store i32 %2, ptr %9, align 4
  store i32 %3, ptr %10, align 4
  store ptr %4, ptr %11, align 8
  store i64 %5, ptr %12, align 8
  %13 = load ptr, ptr %7, align 8
  %14 = icmp ne ptr %13, null
  br i1 %14, label %15, label %23

15:                                               ; preds = %6
  %16 = load ptr, ptr %8, align 8
  %17 = load i32, ptr %9, align 4
  %18 = load i32, ptr %10, align 4
  %19 = load ptr, ptr %11, align 8
  %20 = load ptr, ptr %7, align 8
  %21 = load i64, ptr %12, align 8
  %22 = call zeroext i1 @proto_item_add_bitmask_tree(ptr noundef null, ptr noundef %16, i32 noundef %17, i32 noundef %18, i32 noundef -1, ptr noundef %19, i32 noundef 1, i1 noundef zeroext false, i1 noundef zeroext true, ptr noundef %20, i64 noundef %21)
  br label %23

23:                                               ; preds = %15, %6
  ret void
}