; Function Attrs: null_pointer_is_valid sspstrong uwtable
define void @proto_tree_add_bitmask_list_value(ptr noundef %0, ptr noundef %1, i32 noundef %2, i32 noundef %3, ptr noundef readonly captures(none) %4, i64 noundef %5) local_unnamed_addr #0 {
  %.not = icmp eq ptr %0, null
  br i1 %.not, label %9, label %7

7:                                                ; preds = %6
  %8 = tail call fastcc zeroext i1 @proto_item_add_bitmask_tree(ptr noundef null, ptr noundef %1, i32 noundef %2, i32 noundef %3, i32 noundef -1, ptr noundef %4, i32 noundef 1, i1 noundef zeroext false, i1 noundef zeroext true, ptr noundef nonnull %0, i64 noundef %5)
  br label %9

9:                                                ; preds = %7, %6
  ret void
}